target datalayout = "e-m:e-p270:32:32-p271:32:32-p272:64:64-i64:64-i128:128-f80:128-n8:16:32:64-S128"
target triple = "x86_64-pc-linux-gnu"

%struct.slurm_conf_t = type { i64, ptr, i16, ptr, ptr, ptr, ptr, ptr, i16, ptr, ptr, ptr, ptr, ptr, ptr, ptr, i16, ptr, ptr, ptr, ptr, i16, ptr, ptr, ptr, i64, ptr, ptr, ptr, ptr, i16, ptr, ptr, i16, i32, ptr, i32, ptr, i32, i32, ptr, ptr, i64, i64, ptr, i16, i16, ptr, i32, i32, ptr, i32, ptr, i32, i16, i16, i16, ptr, i16, i16, ptr, ptr, i32, i16, i16, ptr, i32, i16, ptr, ptr, ptr, ptr, i16, ptr, ptr, ptr, ptr, i32, ptr, ptr, ptr, ptr, i16, i16, ptr, i32, i32, i32, i16, i16, ptr, ptr, i16, ptr, ptr, i32, i32, i32, i32, i32, i64, i32, i32, i16, ptr, ptr, i32, ptr, ptr, ptr, i16, i32, ptr, ptr, i16, ptr, ptr, i32, i16, ptr, ptr, ptr, ptr, i32, i32, i16, i16, i32, ptr, i16, ptr, i32, i32, i32, i32, i32, i32, ptr, i16, ptr, ptr, i32, i16, ptr, i32, i16, i16, ptr, ptr, ptr, i16, ptr, ptr, ptr, ptr, i16, i16, ptr, i16, ptr, i16, ptr, i16, ptr, i16, ptr, ptr, ptr, ptr, i16, ptr, ptr, ptr, i32, ptr, i32, ptr, ptr, i16, ptr, ptr, i32, i16, ptr, ptr, i16, i16, ptr, i16, ptr, ptr, ptr, i32, ptr, i16, i16, ptr, ptr, ptr, ptr, ptr, ptr, ptr, ptr, i16, i32, i16, ptr, ptr, ptr, ptr, i32, ptr, ptr, ptr, i16, ptr, ptr, ptr, i16, ptr, i16, ptr, i16, i16, ptr }
%struct.stat = type { i64, i64, i64, i32, i32, i32, i32, i64, i64, i64, i64, %struct.timespec, %struct.timespec, %struct.timespec, [3 x i64] }
%struct.timespec = type { i64, i64 }

@.str.3 = private unnamed_addr constant [6 x i8] c"%s.so\00", align 1
@slurm_conf = external global %struct.slurm_conf_t, align 8
@.str.4 = private unnamed_addr constant [42 x i8] c"plugin_load_and_link: No plugin dir given\00", align 1
@.str.5 = private unnamed_addr constant [6 x i8] c"%s/%s\00", align 1
@.str.6 = private unnamed_addr constant [25 x i8] c"Trying to load plugin %s\00", align 1
@.str.7 = private unnamed_addr constant [42 x i8] c"%s: Does not exist or not a regular file.\00", align 1
@.str.8 = private unnamed_addr constant [9 x i8] c"Success.\00", align 1
@.str.9 = private unnamed_addr constant [71 x i8] c"%s: Plugin loading failed due to missing symbols. Plugin is corrupted.\00", align 1
@__func__.plugin_load_and_link = private unnamed_addr constant [21 x i8] c"plugin_load_and_link\00", align 1
@.str.12 = private unnamed_addr constant [37 x i8] c"Couldn't find sym '%s' in the plugin\00", align 1

; Function Attrs: nounwind uwtable
define dso_local i32 @plugin_get_syms(ptr noundef %0, i32 noundef %1, ptr noundef %2, ptr noundef %3) #0 {
  %5 = alloca ptr, align 8
  %6 = alloca i32, align 4
  %7 = alloca ptr, align 8
  %8 = alloca ptr, align 8
  %9 = alloca i32, align 4
  %10 = alloca i32, align 4
  store ptr %0, ptr %5, align 8
  store i32 %1, ptr %6, align 4
  store ptr %2, ptr %7, align 8
  store ptr %3, ptr %8, align 8
  call void @llvm.lifetime.start.p0(i64 4, ptr %9) #7
  call void @llvm.lifetime.start.p0(i64 4, ptr %10) #7
  store i32 0, ptr %10, align 4
  store i32 0, ptr %9, align 4
  br label %11

11:                                               ; preds = %53, %4
  %12 = load i32, ptr %9, align 4
  %13 = load i32, ptr %6, align 4
  %14 = icmp slt i32 %12, %13
  br i1 %14, label %15, label %56

15:                                               ; preds = %11
  %16 = load ptr, ptr %5, align 8
  %17 = load ptr, ptr %7, align 8
  %18 = load i32, ptr %9, align 4
  %19 = sext i32 %18 to i64
  %20 = getelementptr inbounds ptr, ptr %17, i64 %19
  %21 = load ptr, ptr %20, align 8
  %22 = call ptr @dlsym(ptr noundef %16, ptr noundef %21) #7
  %23 = load ptr, ptr %8, align 8
  %24 = load i32, ptr %9, align 4
  %25 = sext i32 %24 to i64
  %26 = getelementptr inbounds ptr, ptr %23, i64 %25
  store ptr %22, ptr %26, align 8
  %27 = load ptr, ptr %8, align 8
  %28 = load i32, ptr %9, align 4
  %29 = sext i32 %28 to i64
  %30 = getelementptr inbounds ptr, ptr %27, i64 %29
  %31 = load ptr, ptr %30, align 8
  %32 = icmp ne ptr %31, null
  br i1 %32, label %33, label %36

33:                                               ; preds = %15
  %34 = load i32, ptr %10, align 4
  %35 = add nsw i32 %34, 1
  store i32 %35, ptr %10, align 4
  br label %52

36:                                               ; preds = %15
  br label %37

37:                                               ; preds = %36
  br label %38

38:                                               ; preds = %37
  %39 = call i32 @get_log_level()
  %40 = icmp sge i32 %39, 7
  br i1 %40, label %41, label %47

41:                                               ; preds = %38
  %42 = load ptr, ptr %7, align 8
  %43 = load i32, ptr %9, align 4
  %44 = sext i32 %43 to i64
  %45 = getelementptr inbounds ptr, ptr %42, i64 %44
  %46 = load ptr, ptr %45, align 8
  call void (i32, ptr, ...) @log_var(i32 noundef 7, ptr noundef @.str.12, ptr noundef %46)
  br label %47

47:                                               ; preds = %41, %38
  br label %48

48:                                               ; preds = %47
  br label %49

49:                                               ; preds = %48
  br label %50

50:                                               ; preds = %49
  br label %51

51:                                               ; preds = %50
  br label %52

52:                                               ; preds = %51, %33
  br label %53

53:                                               ; preds = %52
  %54 = load i32, ptr %9, align 4
  %55 = add nsw i32 %54, 1
  store i32 %55, ptr %9, align 4
  br label %11, !llvm.loop !8

56:                                               ; preds = %11
  %57 = load i32, ptr %10, align 4
  call void @llvm.lifetime.end.p0(i64 4, ptr %10) #7
  call void @llvm.lifetime.end.p0(i64 4, ptr %9) #7
  ret i32 %57
}

; Function Attrs: nounwind uwtable
define dso_local ptr @plugin_load_and_link(ptr noundef %0, i32 noundef %1, ptr noundef %2, ptr noundef %3) #0 {
  %5 = alloca ptr, align 8
  %6 = alloca ptr, align 8
  %7 = alloca i32, align 4
  %8 = alloca ptr, align 8
  %9 = alloca ptr, align 8
  %10 = alloca ptr, align 8
  %11 = alloca %struct.stat, align 8
  %12 = alloca ptr, align 8
  %13 = alloca ptr, align 8
  %14 = alloca ptr, align 8
  %15 = alloca ptr, align 8
  %16 = alloca i32, align 4
  %17 = alloca i32, align 4
  %18 = alloca i32, align 4
  %19 = alloca i8, align 1
  store ptr %0, ptr %6, align 8
  store i32 %1, ptr %7, align 4
  store ptr %2, ptr %8, align 8
  store ptr %3, ptr %9, align 8
  call void @llvm.lifetime.start.p0(i64 8, ptr %10) #7
  store ptr null, ptr %10, align 8
  call void @llvm.lifetime.start.p0(i64 144, ptr %11) #7
  call void @llvm.lifetime.start.p0(i64 8, ptr %12) #7
  store ptr null, ptr %12, align 8
  call void @llvm.lifetime.start.p0(i64 8, ptr %13) #7
  store ptr null, ptr %13, align 8
  call void @llvm.lifetime.start.p0(i64 8, ptr %14) #7
  store ptr null, ptr %14, align 8
  call void @llvm.lifetime.start.p0(i64 8, ptr %15) #7
  store ptr null, ptr %15, align 8
  call void @llvm.lifetime.start.p0(i64 4, ptr %16) #7
  store i32 0, ptr %16, align 4
  call void @llvm.lifetime.start.p0(i64 4, ptr %17) #7
  store i32 8005, ptr %17, align 4
  %20 = load ptr, ptr %6, align 8
  %21 = icmp ne ptr %20, null
  br i1 %21, label %24, label %22

22:                                               ; preds = %4
  %23 = load ptr, ptr %10, align 8
  store ptr %23, ptr %5, align 8
  store i32 1, ptr %18, align 4
  br label %164

24:                                               ; preds = %4
  %25 = load ptr, ptr %6, align 8
  %26 = call ptr (ptr, ...) @xstrdup_printf(ptr noundef @.str.3, ptr noundef %25)
  store ptr %26, ptr %14, align 8
  br label %27

27:                                               ; preds = %47, %24
  %28 = load ptr, ptr %14, align 8
  %29 = load i32, ptr %16, align 4
  %30 = sext i32 %29 to i64
  %31 = getelementptr inbounds i8, ptr %28, i64 %30
  %32 = load i8, ptr %31, align 1
  %33 = icmp ne i8 %32, 0
  br i1 %33, label %34, label %50

34:                                               ; preds = %27
  %35 = load ptr, ptr %14, align 8
  %36 = load i32, ptr %16, align 4
  %37 = sext i32 %36 to i64
  %38 = getelementptr inbounds i8, ptr %35, i64 %37
  %39 = load i8, ptr %38, align 1
  %40 = sext i8 %39 to i32
  %41 = icmp eq i32 %40, 47
  br i1 %41, label %42, label %47

42:                                               ; preds = %34
  %43 = load ptr, ptr %14, align 8
  %44 = load i32, ptr %16, align 4
  %45 = sext i32 %44 to i64
  %46 = getelementptr inbounds i8, ptr %43, i64 %45
  store i8 95, ptr %46, align 1
  br label %47

47:                                               ; preds = %42, %34
  %48 = load i32, ptr %16, align 4
  %49 = add nsw i32 %48, 1
  store i32 %49, ptr %16, align 4
  br label %27, !llvm.loop !11

50:                                               ; preds = %27
  %51 = load ptr, ptr getelementptr inbounds nuw (%struct.slurm_conf_t, ptr @slurm_conf, i32 0, i32 115), align 8
  %52 = call ptr @xstrdup(ptr noundef %51)
  store ptr %52, ptr %13, align 8
  %53 = icmp ne ptr %52, null
  br i1 %53, label %57, label %54

54:                                               ; preds = %50
  %55 = call i32 (ptr, ...) @error(ptr noundef @.str.4)
  call void @slurm_xfree(ptr noundef %14)
  %56 = load ptr, ptr %10, align 8
  store ptr %56, ptr %5, align 8
  store i32 1, ptr %18, align 4
  br label %164

57:                                               ; preds = %50
  %58 = load ptr, ptr %13, align 8
  store ptr %58, ptr %12, align 8
  store i32 0, ptr %16, align 4
  br label %59

59:                                               ; preds = %157, %57
  call void @llvm.lifetime.start.p0(i64 1, ptr %19) #7
  store i8 0, ptr %19, align 1
  %60 = load ptr, ptr %13, align 8
  %61 = load i32, ptr %16, align 4
  %62 = sext i32 %61 to i64
  %63 = getelementptr inbounds i8, ptr %60, i64 %62
  %64 = load i8, ptr %63, align 1
  %65 = sext i8 %64 to i32
  %66 = icmp eq i32 %65, 58
  br i1 %66, label %67, label %72

67:                                               ; preds = %59
  %68 = load ptr, ptr %13, align 8
  %69 = load i32, ptr %16, align 4
  %70 = sext i32 %69 to i64
  %71 = getelementptr inbounds i8, ptr %68, i64 %70
  store i8 0, ptr %71, align 1
  store i8 1, ptr %19, align 1
  br label %82

72:                                               ; preds = %59
  %73 = load ptr, ptr %13, align 8
  %74 = load i32, ptr %16, align 4
  %75 = sext i32 %74 to i64
  %76 = getelementptr inbounds i8, ptr %73, i64 %75
  %77 = load i8, ptr %76, align 1
  %78 = sext i8 %77 to i32
  %79 = icmp ne i32 %78, 0
  br i1 %79, label %80, label %81

80:                                               ; preds = %72
  store i32 6, ptr %18, align 4
  br label %154

81:                                               ; preds = %72
  br label %82

82:                                               ; preds = %81, %67
  %83 = load ptr, ptr %12, align 8
  %84 = load ptr, ptr %14, align 8
  %85 = call ptr (ptr, ...) @xstrdup_printf(ptr noundef @.str.5, ptr noundef %83, ptr noundef %84)
  store ptr %85, ptr %15, align 8
  br label %86

86:                                               ; preds = %82
  br label %87

87:                                               ; preds = %86
  %88 = call i32 @get_log_level()
  %89 = icmp sge i32 %88, 7
  br i1 %89, label %90, label %92

90:                                               ; preds = %87
  %91 = load ptr, ptr %15, align 8
  call void (i32, ptr, ...) @log_var(i32 noundef 7, ptr noundef @.str.6, ptr noundef %91)
  br label %92

92:                                               ; preds = %90, %87
  br label %93

93:                                               ; preds = %92
  br label %94

94:                                               ; preds = %93
  br label %95

95:                                               ; preds = %94
  br label %96

96:                                               ; preds = %95
  %97 = load ptr, ptr %15, align 8
  %98 = call i32 @stat(ptr noundef %97, ptr noundef %11) #7
  %99 = icmp slt i32 %98, 0
  br i1 %99, label %105, label %100

100:                                              ; preds = %96
  %101 = getelementptr inbounds nuw %struct.stat, ptr %11, i32 0, i32 3
  %102 = load i32, ptr %101, align 8
  %103 = and i32 %102, 61440
  %104 = icmp eq i32 %103, 32768
  br i1 %104, label %117, label %105

105:                                              ; preds = %100, %96
  br label %106

106:                                              ; preds = %105
  br label %107

107:                                              ; preds = %106
  %108 = call i32 @get_log_level()
  %109 = icmp sge i32 %108, 8
  br i1 %109, label %110, label %112

110:                                              ; preds = %107
  %111 = load ptr, ptr %15, align 8
  call void (i32, ptr, ...) @log_var(i32 noundef 8, ptr noundef @.str.7, ptr noundef %111)
  br label %112

112:                                              ; preds = %110, %107
  br label %113

113:                                              ; preds = %112
  br label %114

114:                                              ; preds = %113
  br label %115

115:                                              ; preds = %114
  br label %116

116:                                              ; preds = %115
  call void @slurm_xfree(ptr noundef %15)
  store i32 8005, ptr %17, align 4
  br label %143

117:                                              ; preds = %100
  %118 = load ptr, ptr %15, align 8
  %119 = call i32 @plugin_load_from_file(ptr noundef %10, ptr noundef %118)
  store i32 %119, ptr %17, align 4
  %120 = icmp eq i32 %119, 0
  br i1 %120, label %121, label %141

121:                                              ; preds = %117
  %122 = load ptr, ptr %10, align 8
  %123 = load i32, ptr %7, align 4
  %124 = load ptr, ptr %8, align 8
  %125 = load ptr, ptr %9, align 8
  %126 = call i32 @plugin_get_syms(ptr noundef %122, i32 noundef %123, ptr noundef %124, ptr noundef %125)
  %127 = load i32, ptr %7, align 4
  %128 = icmp sge i32 %126, %127
  br i1 %128, label %129, label %140

129:                                              ; preds = %121
  br label %130

130:                                              ; preds = %129
  br label %131

131:                                              ; preds = %130
  %132 = call i32 @get_log_level()
  %133 = icmp sge i32 %132, 7
  br i1 %133, label %134, label %135

134:                                              ; preds = %131
  call void (i32, ptr, ...) @log_var(i32 noundef 7, ptr noundef @.str.8)
  br label %135

135:                                              ; preds = %134, %131
  br label %136

136:                                              ; preds = %135
  br label %137

137:                                              ; preds = %136
  br label %138

138:                                              ; preds = %137
  br label %139

139:                                              ; preds = %138
  call void @slurm_xfree(ptr noundef %15)
  store i32 4, ptr %18, align 4
  br label %154

140:                                              ; preds = %121
  call void (ptr, ...) @fatal(ptr noundef @.str.9, ptr noundef @__func__.plugin_load_and_link) #8
  unreachable

141:                                              ; preds = %117
  store ptr null, ptr %10, align 8
  br label %142

142:                                              ; preds = %141
  call void @slurm_xfree(ptr noundef %15)
  br label %143

143:                                              ; preds = %142, %116
  %144 = load i8, ptr %19, align 1, !range !12, !noundef !13
  %145 = trunc i8 %144 to i1
  br i1 %145, label %146, label %152

146:                                              ; preds = %143
  %147 = load ptr, ptr %13, align 8
  %148 = load i32, ptr %16, align 4
  %149 = sext i32 %148 to i64
  %150 = getelementptr inbounds i8, ptr %147, i64 %149
  %151 = getelementptr inbounds i8, ptr %150, i64 1
  store ptr %151, ptr %12, align 8
  br label %153

152:                                              ; preds = %143
  store i32 4, ptr %18, align 4
  br label %154

153:                                              ; preds = %146
  store i32 0, ptr %18, align 4
  br label %154

154:                                              ; preds = %153, %152, %139, %80
  call void @llvm.lifetime.end.p0(i64 1, ptr %19) #7
  %155 = load i32, ptr %18, align 4
  switch i32 %155, label %166 [
    i32 0, label %156
    i32 6, label %157
    i32 4, label %160
  ]

156:                                              ; preds = %154
  br label %157

157:                                              ; preds = %156, %154
  %158 = load i32, ptr %16, align 4
  %159 = add nsw i32 %158, 1
  store i32 %159, ptr %16, align 4
  br label %59, !llvm.loop !14

160:                                              ; preds = %154
  call void @slurm_xfree(ptr noundef %13)
  call void @slurm_xfree(ptr noundef %14)
  %161 = load i32, ptr %17, align 4
  %162 = call ptr @__errno_location() #9
  store i32 %161, ptr %162, align 4
  %163 = load ptr, ptr %10, align 8
  store ptr %163, ptr %5, align 8
  store i32 1, ptr %18, align 4
  br label %164

164:                                              ; preds = %160, %54, %22
  call void @llvm.lifetime.end.p0(i64 4, ptr %17) #7
  call void @llvm.lifetime.end.p0(i64 4, ptr %16) #7
  call void @llvm.lifetime.end.p0(i64 8, ptr %15) #7
  call void @llvm.lifetime.end.p0(i64 8, ptr %14) #7
  call void @llvm.lifetime.end.p0(i64 8, ptr %13) #7
  call void @llvm.lifetime.end.p0(i64 8, ptr %12) #7
  call void @llvm.lifetime.end.p0(i64 144, ptr %11) #7
  call void @llvm.lifetime.end.p0(i64 8, ptr %10) #7
  %165 = load ptr, ptr %5, align 8
  ret ptr %165

166:                                              ; preds = %154
  unreachable
}