; Function Attrs: nounwind uwtable
define dso_local ptr @plugin_load_and_link(ptr noundef %0, i32 noundef %1, ptr noundef readonly captures(none) %2, ptr noundef writeonly captures(none) %3) #0 {
  %5 = alloca ptr, align 8
  %6 = alloca %struct.stat, align 8
  %7 = alloca ptr, align 8
  %8 = alloca ptr, align 8
  %9 = alloca ptr, align 8
  call void @llvm.lifetime.start.p0(i64 8, ptr nonnull %5) #10
  store ptr null, ptr %5, align 8
  call void @llvm.lifetime.start.p0(i64 144, ptr nonnull %6) #10
  call void @llvm.lifetime.start.p0(i64 8, ptr nonnull %7) #10
  store ptr null, ptr %7, align 8
  call void @llvm.lifetime.start.p0(i64 8, ptr nonnull %8) #10
  call void @llvm.lifetime.start.p0(i64 8, ptr nonnull %9) #10
  store ptr null, ptr %9, align 8
  %.not = icmp eq ptr %0, null
  br i1 %.not, label %84, label %10

10:                                               ; preds = %4
  %11 = tail call ptr (ptr, ...) @xstrdup_printf(ptr noundef nonnull @.str.3, ptr noundef nonnull %0) #10
  store ptr %11, ptr %8, align 8
  br label %12

12:                                               ; preds = %16, %10
  %.pre46 = phi ptr [ %.pre, %16 ], [ %11, %10 ]
  %indvars.iv = phi i64 [ %indvars.iv.next, %16 ], [ 0, %10 ]
  %13 = getelementptr inbounds nuw i8, ptr %.pre46, i64 %indvars.iv
  %14 = load i8, ptr %13, align 1
  switch i8 %14, label %16 [
    i8 0, label %17
    i8 47, label %15
  ]

15:                                               ; preds = %12
  store i8 95, ptr %13, align 1
  %.pre.pre = load ptr, ptr %8, align 8
  br label %16

16:                                               ; preds = %12, %15
  %.pre = phi ptr [ %.pre46, %12 ], [ %.pre.pre, %15 ]
  %indvars.iv.next = add nuw nsw i64 %indvars.iv, 1
  br label %12, !llvm.loop !11

17:                                               ; preds = %12
  %18 = load ptr, ptr getelementptr inbounds nuw (i8, ptr @slurm_conf, i64 776), align 8
  %19 = tail call ptr @xstrdup(ptr noundef %18) #10
  store ptr %19, ptr %7, align 8
  %.not33 = icmp eq ptr %19, null
  br i1 %.not33, label %21, label %.preheader

.preheader:                                       ; preds = %17
  %20 = getelementptr inbounds nuw i8, ptr %6, i64 24
  br label %23

21:                                               ; preds = %17
  %22 = tail call i32 (ptr, ...) @error(ptr noundef nonnull @.str.4) #10
  call void @slurm_xfree(ptr noundef nonnull %8) #10
  br label %84

23:                                               ; preds = %.preheader, %81
  %24 = phi ptr [ %19, %.preheader ], [ %82, %81 ]
  %indvars.iv43 = phi i64 [ 0, %.preheader ], [ %indvars.iv.next44, %81 ]
  %.023 = phi ptr [ %19, %.preheader ], [ %.124, %81 ]
  %25 = getelementptr inbounds nuw i8, ptr %24, i64 %indvars.iv43
  %26 = load i8, ptr %25, align 1
  %27 = icmp eq i8 %26, 58
  br i1 %27, label %28, label %29

28:                                               ; preds = %23
  store i8 0, ptr %25, align 1
  br label %30

29:                                               ; preds = %23
  %.not34 = icmp eq i8 %26, 0
  br i1 %.not34, label %30, label %81

30:                                               ; preds = %29, %28
  %31 = load ptr, ptr %8, align 8
  %32 = call ptr (ptr, ...) @xstrdup_printf(ptr noundef nonnull @.str.5, ptr noundef %.023, ptr noundef %31) #10
  store ptr %32, ptr %9, align 8
  %33 = call i32 @get_log_level() #10
  %34 = icmp sgt i32 %33, 6
  br i1 %34, label %35, label %37

35:                                               ; preds = %30
  %36 = load ptr, ptr %9, align 8
  call void (i32, ptr, ...) @log_var(i32 noundef 7, ptr noundef nonnull @.str.6, ptr noundef %36) #10
  br label %37

37:                                               ; preds = %35, %30
  %38 = load ptr, ptr %9, align 8
  %39 = call i32 @stat(ptr noundef %38, ptr noundef nonnull %6) #10
  %40 = icmp slt i32 %39, 0
  br i1 %40, label %45, label %41

41:                                               ; preds = %37
  %42 = load i32, ptr %20, align 8
  %43 = and i32 %42, 61440
  %44 = icmp eq i32 %43, 32768
  br i1 %44, label %50, label %45

45:                                               ; preds = %41, %37
  %46 = call i32 @get_log_level() #10
  %47 = icmp sgt i32 %46, 7
  br i1 %47, label %48, label %76

48:                                               ; preds = %45
  %49 = load ptr, ptr %9, align 8
  call void (i32, ptr, ...) @log_var(i32 noundef 8, ptr noundef nonnull @.str.7, ptr noundef %49) #10
  br label %76

50:                                               ; preds = %41
  %51 = load ptr, ptr %9, align 8
  %52 = call i32 @plugin_load_from_file(ptr noundef nonnull %5, ptr noundef %51)
  %53 = icmp eq i32 %52, 0
  br i1 %53, label %54, label %75

54:                                               ; preds = %50
  %55 = load ptr, ptr %5, align 8
  %56 = icmp sgt i32 %1, 0
  br i1 %56, label %.lr.ph.preheader.i, label %plugin_get_syms.exit

.lr.ph.preheader.i:                               ; preds = %54
  %wide.trip.count.i = zext nneg i32 %1 to i64
  br label %.lr.ph.i

.lr.ph.i:                                         ; preds = %68, %.lr.ph.preheader.i
  %indvars.iv.i = phi i64 [ 0, %.lr.ph.preheader.i ], [ %indvars.iv.next.i, %68 ]
  %.015.i = phi i32 [ 0, %.lr.ph.preheader.i ], [ %.1.i, %68 ]
  %57 = getelementptr inbounds nuw ptr, ptr %2, i64 %indvars.iv.i
  %58 = load ptr, ptr %57, align 8
  %59 = call ptr @dlsym(ptr noundef %55, ptr noundef %58) #10
  %60 = getelementptr inbounds nuw ptr, ptr %3, i64 %indvars.iv.i
  store ptr %59, ptr %60, align 8
  %.not.i = icmp eq ptr %59, null
  br i1 %.not.i, label %63, label %61

61:                                               ; preds = %.lr.ph.i
  %62 = add nsw i32 %.015.i, 1
  br label %68

63:                                               ; preds = %.lr.ph.i
  %64 = call i32 @get_log_level() #10
  %65 = icmp sgt i32 %64, 6
  br i1 %65, label %66, label %68

66:                                               ; preds = %63
  %67 = load ptr, ptr %57, align 8
  call void (i32, ptr, ...) @log_var(i32 noundef 7, ptr noundef nonnull @.str.12, ptr noundef %67) #10
  br label %68

68:                                               ; preds = %66, %63, %61
  %.1.i = phi i32 [ %62, %61 ], [ %.015.i, %66 ], [ %.015.i, %63 ]
  %indvars.iv.next.i = add nuw nsw i64 %indvars.iv.i, 1
  %exitcond.not.i = icmp eq i64 %indvars.iv.next.i, %wide.trip.count.i
  br i1 %exitcond.not.i, label %plugin_get_syms.exit, label %.lr.ph.i, !llvm.loop !8

plugin_get_syms.exit:                             ; preds = %68, %54
  %.0.lcssa.i = phi i32 [ 0, %54 ], [ %.1.i, %68 ]
  %.not35 = icmp slt i32 %.0.lcssa.i, %1
  br i1 %.not35, label %74, label %69

69:                                               ; preds = %plugin_get_syms.exit
  %70 = call i32 @get_log_level() #10
  %71 = icmp sgt i32 %70, 6
  br i1 %71, label %72, label %73

72:                                               ; preds = %69
  call void (i32, ptr, ...) @log_var(i32 noundef 7, ptr noundef nonnull @.str.8) #10
  br label %73

73:                                               ; preds = %72, %69
  call void @slurm_xfree(ptr noundef nonnull %9) #10
  br label %.loopexit

74:                                               ; preds = %plugin_get_syms.exit
  call void (ptr, ...) @fatal(ptr noundef nonnull @.str.9, ptr noundef nonnull @__func__.plugin_load_and_link) #11
  unreachable

75:                                               ; preds = %50
  store ptr null, ptr %5, align 8
  br label %76

76:                                               ; preds = %45, %48, %75
  %.2 = phi i32 [ %52, %75 ], [ 8005, %48 ], [ 8005, %45 ]
  call void @slurm_xfree(ptr noundef nonnull %9) #10
  br i1 %27, label %77, label %.loopexit

77:                                               ; preds = %76
  %78 = load ptr, ptr %7, align 8
  %79 = getelementptr inbounds nuw i8, ptr %78, i64 %indvars.iv43
  %80 = getelementptr inbounds nuw i8, ptr %79, i64 1
  br label %81

81:                                               ; preds = %77, %29
  %82 = phi ptr [ %78, %77 ], [ %24, %29 ]
  %.124 = phi ptr [ %80, %77 ], [ %.023, %29 ]
  %indvars.iv.next44 = add nuw nsw i64 %indvars.iv43, 1
  br label %23, !llvm.loop !12

.loopexit:                                        ; preds = %76, %73
  %.1.ph = phi i32 [ 0, %73 ], [ %.2, %76 ]
  call void @slurm_xfree(ptr noundef nonnull %7) #10
  call void @slurm_xfree(ptr noundef nonnull %8) #10
  %83 = tail call ptr @__errno_location() #12
  store i32 %.1.ph, ptr %83, align 4
  br label %84

84:                                               ; preds = %4, %.loopexit, %21
  %.025 = load ptr, ptr %5, align 8
  call void @llvm.lifetime.end.p0(i64 8, ptr nonnull %9) #10
  call void @llvm.lifetime.end.p0(i64 8, ptr nonnull %8) #10
  call void @llvm.lifetime.end.p0(i64 8, ptr nonnull %7) #10
  call void @llvm.lifetime.end.p0(i64 144, ptr nonnull %6) #10
  call void @llvm.lifetime.end.p0(i64 8, ptr nonnull %5) #10
  ret ptr %.025
}